target datalayout = "e-m:e-p270:32:32-p271:32:32-p272:64:64-i64:64-i128:128-f80:128-n8:16:32:64-S128"
target triple = "x86_64-pc-linux-gnu"

%struct.CPMSetBindingsIn = type { i32, i32, i32, i32, i32, ptr }
%struct.__va_list_tag = type { i32, i32, ptr, ptr }

@ett_GetRowsRow = internal global i32 0, align 4
@.str.1369 = private unnamed_addr constant [8 x i8] c"Row[%d]\00", align 1
@.str.1370 = private unnamed_addr constant [8 x i8] c"Col[%d]\00", align 1

; Function Attrs: null_pointer_is_valid sspstrong uwtable
define internal i32 @parse_RowsBuffer(ptr noundef %0, ptr noundef %1, i32 noundef %2, i32 noundef %3, ptr noundef %4, ptr noundef %5, i1 noundef zeroext %6, ptr noundef %7, ptr noundef %8, ...) #0 {
  %10 = alloca ptr, align 8
  %11 = alloca ptr, align 8
  %12 = alloca i32, align 4
  %13 = alloca i32, align 4
  %14 = alloca ptr, align 8
  %15 = alloca ptr, align 8
  %16 = alloca i8, align 1
  %17 = alloca ptr, align 8
  %18 = alloca ptr, align 8
  %19 = alloca ptr, align 8
  %20 = alloca ptr, align 8
  %21 = alloca i32, align 4
  %22 = alloca ptr, align 8
  %23 = alloca [1 x %struct.__va_list_tag], align 16
  %24 = alloca i32, align 4
  %25 = alloca ptr, align 8
  store ptr %0, ptr %10, align 8
  store ptr %1, ptr %11, align 8
  store i32 %2, ptr %12, align 4
  store i32 %3, ptr %13, align 4
  store ptr %4, ptr %14, align 8
  store ptr %5, ptr %15, align 8
  %26 = zext i1 %6 to i8
  store i8 %26, ptr %16, align 1
  store ptr %7, ptr %17, align 8
  store ptr %8, ptr %18, align 8
  call void @llvm.lifetime.start.p0(i64 8, ptr %19) #11
  call void @llvm.lifetime.start.p0(i64 8, ptr %20) #11
  call void @llvm.lifetime.start.p0(i64 4, ptr %21) #11
  call void @llvm.lifetime.start.p0(i64 8, ptr %22) #11
  call void @llvm.lifetime.start.p0(i64 24, ptr %23) #11
  %27 = getelementptr inbounds [1 x %struct.__va_list_tag], ptr %23, i64 0, i64 0
  call void @llvm.va_start.p0(ptr %27)
  %28 = call ptr @wmem_packet_scope()
  %29 = load ptr, ptr %18, align 8
  %30 = getelementptr inbounds [1 x %struct.__va_list_tag], ptr %23, i64 0, i64 0
  %31 = call noalias ptr @wmem_strdup_vprintf(ptr noundef %28, ptr noundef %29, ptr noundef %30)
  store ptr %31, ptr %22, align 8
  %32 = getelementptr inbounds [1 x %struct.__va_list_tag], ptr %23, i64 0, i64 0
  call void @llvm.va_end.p0(ptr %32)
  %33 = load ptr, ptr %17, align 8
  %34 = load ptr, ptr %10, align 8
  %35 = load i32, ptr %12, align 4
  %36 = load i32, ptr @ett_GetRowsRow, align 4
  %37 = load ptr, ptr %22, align 8
  %38 = call ptr @proto_tree_add_subtree(ptr noundef %33, ptr noundef %34, i32 noundef %35, i32 noundef 0, i32 noundef %36, ptr noundef %20, ptr noundef %37)
  store ptr %38, ptr %19, align 8
  store i32 0, ptr %21, align 4
  br label %39

39:                                               ; preds = %73, %9
  %40 = load i32, ptr %21, align 4
  %41 = load i32, ptr %13, align 4
  %42 = icmp ult i32 %40, %41
  br i1 %42, label %43, label %76

43:                                               ; preds = %39
  call void @llvm.lifetime.start.p0(i64 4, ptr %24) #11
  call void @llvm.lifetime.start.p0(i64 8, ptr %25) #11
  %44 = load ptr, ptr %19, align 8
  %45 = load ptr, ptr %10, align 8
  %46 = load i32, ptr %12, align 4
  %47 = load i32, ptr @ett_GetRowsRow, align 4
  %48 = load i32, ptr %21, align 4
  %49 = call ptr (ptr, ptr, i32, i32, i32, ptr, ptr, ...) @proto_tree_add_subtree_format(ptr noundef %44, ptr noundef %45, i32 noundef %46, i32 noundef 0, i32 noundef %47, ptr noundef null, ptr noundef @.str.1369, i32 noundef %48)
  store ptr %49, ptr %25, align 8
  store i32 0, ptr %24, align 4
  br label %50

50:                                               ; preds = %69, %43
  %51 = load i32, ptr %24, align 4
  %52 = load ptr, ptr %14, align 8
  %53 = getelementptr inbounds nuw %struct.CPMSetBindingsIn, ptr %52, i32 0, i32 4
  %54 = load i32, ptr %53, align 8
  %55 = icmp ult i32 %51, %54
  br i1 %55, label %56, label %72

56:                                               ; preds = %50
  %57 = load ptr, ptr %10, align 8
  %58 = load ptr, ptr %11, align 8
  %59 = load i32, ptr %12, align 4
  %60 = load i32, ptr %21, align 4
  %61 = load i32, ptr %24, align 4
  %62 = load ptr, ptr %14, align 8
  %63 = load ptr, ptr %15, align 8
  %64 = load i8, ptr %16, align 1, !range !8, !noundef !9
  %65 = trunc i8 %64 to i1
  %66 = load ptr, ptr %25, align 8
  %67 = load i32, ptr %24, align 4
  %68 = call i32 (ptr, ptr, i32, i32, i32, ptr, ptr, i1, ptr, ptr, ...) @parse_RowsBufferCol(ptr noundef %57, ptr noundef %58, i32 noundef %59, i32 noundef %60, i32 noundef %61, ptr noundef %62, ptr noundef %63, i1 noundef zeroext %65, ptr noundef %66, ptr noundef @.str.1370, i32 noundef %67)
  br label %69

69:                                               ; preds = %56
  %70 = load i32, ptr %24, align 4
  %71 = add i32 %70, 1
  store i32 %71, ptr %24, align 4
  br label %50, !llvm.loop !31

72:                                               ; preds = %50
  call void @llvm.lifetime.end.p0(i64 8, ptr %25) #11
  call void @llvm.lifetime.end.p0(i64 4, ptr %24) #11
  br label %73

73:                                               ; preds = %72
  %74 = load i32, ptr %21, align 4
  %75 = add i32 %74, 1
  store i32 %75, ptr %21, align 4
  br label %39, !llvm.loop !32

76:                                               ; preds = %39
  %77 = load i32, ptr %12, align 4
  call void @llvm.lifetime.end.p0(i64 24, ptr %23) #11
  call void @llvm.lifetime.end.p0(i64 8, ptr %22) #11
  call void @llvm.lifetime.end.p0(i64 4, ptr %21) #11
  call void @llvm.lifetime.end.p0(i64 8, ptr %20) #11
  call void @llvm.lifetime.end.p0(i64 8, ptr %19) #11
  ret i32 %77
}