; Function Attrs: null_pointer_is_valid sspstrong uwtable
define internal noundef i32 @parse_RowsBuffer(ptr noundef %0, ptr noundef %1, i32 noundef returned %2, i32 noundef %3, ptr noundef nonnull readonly captures(none) %4, ptr noundef nonnull readonly captures(none) %5, i1 noundef zeroext %6, ptr noundef %7, ptr readnone captures(none) %8, ...) unnamed_addr #0 {
  %10 = alloca ptr, align 8
  %11 = alloca [1 x %struct.__va_list_tag], align 16
  call void @llvm.lifetime.start.p0(i64 8, ptr nonnull %10) #11
  call void @llvm.lifetime.start.p0(i64 24, ptr nonnull %11) #11
  call void @llvm.va_start.p0(ptr nonnull %11)
  %12 = call ptr @wmem_packet_scope()
  %13 = call noalias ptr @wmem_strdup_vprintf(ptr noundef %12, ptr noundef nonnull @.str.1363, ptr noundef nonnull %11)
  call void @llvm.va_end.p0(ptr nonnull %11)
  %14 = load i32, ptr @ett_GetRowsRow, align 4
  %15 = call ptr @proto_tree_add_subtree(ptr noundef %7, ptr noundef %0, i32 noundef %2, i32 noundef 0, i32 noundef %14, ptr noundef nonnull %10, ptr noundef %13)
  %.not = icmp eq i32 %3, 0
  br i1 %.not, label %._crit_edge30, label %.lr.ph29

.lr.ph29:                                         ; preds = %9
  %16 = getelementptr inbounds nuw i8, ptr %4, i64 16
  br label %17

17:                                               ; preds = %.lr.ph29, %._crit_edge
  %.027 = phi i32 [ 0, %.lr.ph29 ], [ %25, %._crit_edge ]
  %18 = load i32, ptr @ett_GetRowsRow, align 4
  %19 = call ptr (ptr, ptr, i32, i32, i32, ptr, ptr, ...) @proto_tree_add_subtree_format(ptr noundef %15, ptr noundef %0, i32 noundef %2, i32 noundef 0, i32 noundef %18, ptr noundef null, ptr noundef nonnull @.str.1369, i32 noundef %.027)
  %20 = load i32, ptr %16, align 8
  %.not31 = icmp eq i32 %20, 0
  br i1 %.not31, label %._crit_edge, label %.lr.ph

.lr.ph:                                           ; preds = %17, %.lr.ph
  %.02526 = phi i32 [ %22, %.lr.ph ], [ 0, %17 ]
  %21 = call i32 (ptr, ptr, i32, i32, i32, ptr, ptr, i1, ptr, ptr, ...) @parse_RowsBufferCol(ptr noundef %0, ptr noundef %1, i32 noundef %2, i32 noundef %.027, i32 noundef %.02526, ptr noundef %4, ptr noundef %5, i1 noundef zeroext %6, ptr noundef %19, ptr nonnull poison, i32 noundef %.02526)
  %22 = add nuw i32 %.02526, 1
  %23 = load i32, ptr %16, align 8
  %24 = icmp ult i32 %22, %23
  br i1 %24, label %.lr.ph, label %._crit_edge, !llvm.loop !32

._crit_edge:                                      ; preds = %.lr.ph, %17
  %25 = add nuw i32 %.027, 1
  %exitcond.not = icmp eq i32 %25, %3
  br i1 %exitcond.not, label %._crit_edge30, label %17, !llvm.loop !33

._crit_edge30:                                    ; preds = %._crit_edge, %9
  call void @llvm.lifetime.end.p0(i64 24, ptr nonnull %11) #11
  call void @llvm.lifetime.end.p0(i64 8, ptr nonnull %10) #11
  ret i32 %2
}